target datalayout = "e-m:e-p270:32:32-p271:32:32-p272:64:64-i64:64-i128:128-f80:128-n8:16:32:64-S128"
target triple = "x86_64-pc-linux-gnu"

%struct.slurm_select_ops_t = type { ptr, ptr, ptr, ptr, ptr, ptr, ptr, ptr, ptr, ptr, ptr, ptr, ptr, ptr, ptr, ptr, ptr, ptr, ptr, ptr, ptr, ptr, ptr, ptr, ptr, ptr, ptr, ptr, ptr, ptr, ptr, ptr }
%struct.dynamic_plugin_data = type { ptr, i32 }

@ops = internal global ptr null, align 8
@select_context_default = internal global i32 -1, align 4

; Function Attrs: nounwind uwtable
define dso_local i32 @select_g_select_nodeinfo_get(ptr noundef %0, i32 noundef %1, i32 noundef %2, ptr noundef %3) #0 {
  %5 = alloca ptr, align 8
  %6 = alloca i32, align 4
  %7 = alloca i32, align 4
  %8 = alloca ptr, align 8
  %9 = alloca ptr, align 8
  %10 = alloca i32, align 4
  store ptr %0, ptr %5, align 8
  store i32 %1, ptr %6, align 4
  store i32 %2, ptr %7, align 4
  store ptr %3, ptr %8, align 8
  call void @llvm.lifetime.start.p0(i64 8, ptr %9) #7
  store ptr null, ptr %9, align 8
  call void @llvm.lifetime.start.p0(i64 4, ptr %10) #7
  %11 = load ptr, ptr %5, align 8
  %12 = icmp ne ptr %11, null
  br i1 %12, label %13, label %20

13:                                               ; preds = %4
  %14 = load ptr, ptr %5, align 8
  %15 = getelementptr inbounds nuw %struct.dynamic_plugin_data, ptr %14, i32 0, i32 0
  %16 = load ptr, ptr %15, align 8
  store ptr %16, ptr %9, align 8
  %17 = load ptr, ptr %5, align 8
  %18 = getelementptr inbounds nuw %struct.dynamic_plugin_data, ptr %17, i32 0, i32 1
  %19 = load i32, ptr %18, align 8
  store i32 %19, ptr %10, align 4
  br label %22

20:                                               ; preds = %4
  %21 = load i32, ptr @select_context_default, align 4
  store i32 %21, ptr %10, align 4
  br label %22

22:                                               ; preds = %20, %13
  %23 = load ptr, ptr @ops, align 8
  %24 = load i32, ptr %10, align 4
  %25 = zext i32 %24 to i64
  %26 = getelementptr inbounds nuw %struct.slurm_select_ops_t, ptr %23, i64 %25
  %27 = getelementptr inbounds nuw %struct.slurm_select_ops_t, ptr %26, i32 0, i32 22
  %28 = load ptr, ptr %27, align 8
  %29 = load ptr, ptr %9, align 8
  %30 = load i32, ptr %6, align 4
  %31 = load i32, ptr %7, align 4
  %32 = load ptr, ptr %8, align 8
  %33 = call i32 %28(ptr noundef %29, i32 noundef %30, i32 noundef %31, ptr noundef %32)
  call void @llvm.lifetime.end.p0(i64 4, ptr %10) #7
  call void @llvm.lifetime.end.p0(i64 8, ptr %9) #7
  ret i32 %33
}