; Function Attrs: nounwind uwtable
define dso_local i32 @select_g_select_nodeinfo_get(ptr noundef readonly captures(address_is_null) %0, i32 noundef %1, i32 noundef %2, ptr noundef %3) local_unnamed_addr #0 {
  %.not = icmp eq ptr %0, null
  br i1 %.not, label %8, label %5

5:                                                ; preds = %4
  %6 = load ptr, ptr %0, align 8
  %7 = getelementptr inbounds nuw i8, ptr %0, i64 8
  br label %8

8:                                                ; preds = %4, %5
  %.07 = phi ptr [ %6, %5 ], [ null, %4 ]
  %.0.in = phi ptr [ %7, %5 ], [ @select_context_default, %4 ]
  %.0 = load i32, ptr %.0.in, align 4
  %9 = load ptr, ptr @ops, align 8
  %10 = zext i32 %.0 to i64
  %11 = getelementptr inbounds nuw %struct.slurm_select_ops_t, ptr %9, i64 %10, i32 22
  %12 = load ptr, ptr %11, align 8
  %13 = tail call i32 %12(ptr noundef %.07, i32 noundef %1, i32 noundef %2, ptr noundef %3) #15
  ret i32 %13
}